target datalayout = "e-m:e-p270:32:32-p271:32:32-p272:64:64-i64:64-i128:128-f80:128-n8:16:32:64-S128"
target triple = "x86_64-pc-linux-gnu"

%"struct.llvm::codeview::GloballyHashedType" = type { %"struct.std::array" }
%"struct.std::array" = type { [8 x i8] }
%"class.llvm::codeview::TypeIndex" = type { %"struct.llvm::support::detail::packed_endian_specific_integral" }
%"struct.llvm::support::detail::packed_endian_specific_integral" = type { %struct.anon }
%struct.anon = type { [4 x i8] }
%"class.llvm::codeview::GlobalTypeTableBuilder" = type { %"class.llvm::codeview::TypeCollection", ptr, %"class.llvm::codeview::SimpleTypeSerializer", %"class.llvm::DenseMap", %"class.llvm::SmallVector", %"class.llvm::SmallVector.0" }
%"class.llvm::codeview::TypeCollection" = type { ptr }
%"class.llvm::codeview::SimpleTypeSerializer" = type { %"class.std::vector" }
%"class.std::vector" = type { %"struct.std::_Vector_base" }
%"struct.std::_Vector_base" = type { %"struct.std::_Vector_base<unsigned char, std::allocator<unsigned char>>::_Vector_impl" }
%"struct.std::_Vector_base<unsigned char, std::allocator<unsigned char>>::_Vector_impl" = type { %"struct.std::_Vector_base<unsigned char, std::allocator<unsigned char>>::_Vector_impl_data" }
%"struct.std::_Vector_base<unsigned char, std::allocator<unsigned char>>::_Vector_impl_data" = type { ptr, ptr, ptr }
%"class.llvm::DenseMap" = type <{ ptr, i32, i32, i32, [4 x i8] }>
%"class.llvm::SmallVector" = type { %"class.llvm::SmallVectorImpl", %"struct.llvm::SmallVectorStorage" }
%"class.llvm::SmallVectorImpl" = type { %"class.llvm::SmallVectorTemplateBase" }
%"class.llvm::SmallVectorTemplateBase" = type { %"class.llvm::SmallVectorTemplateCommon" }
%"class.llvm::SmallVectorTemplateCommon" = type { %"class.llvm::SmallVectorBase" }
%"class.llvm::SmallVectorBase" = type { ptr, i32, i32 }
%"struct.llvm::SmallVectorStorage" = type { [32 x i8] }
%"class.llvm::SmallVector.0" = type { %"class.llvm::SmallVectorImpl.1", %"struct.llvm::SmallVectorStorage.4" }
%"class.llvm::SmallVectorImpl.1" = type { %"class.llvm::SmallVectorTemplateBase.2" }
%"class.llvm::SmallVectorTemplateBase.2" = type { %"class.llvm::SmallVectorTemplateCommon.3" }
%"class.llvm::SmallVectorTemplateCommon.3" = type { %"class.llvm::SmallVectorBase" }
%"struct.llvm::SmallVectorStorage.4" = type { [16 x i8] }
%"class.llvm::ArrayRef" = type { ptr, i64 }
%"struct.llvm::detail::DenseMapPair" = type { %"struct.std::pair.55" }
%"struct.std::pair.55" = type { %"struct.llvm::codeview::GloballyHashedType", %"class.llvm::codeview::TypeIndex" }

@_ZN4llvm12DenseMapInfoINS_8codeview18GloballyHashedTypeEvE5EmptyE = external global %"struct.llvm::codeview::GloballyHashedType", align 1

; Function Attrs: mustprogress nounwind uwtable
define linkonce_odr hidden void @_ZN4llvm8DenseMapINS_8codeview18GloballyHashedTypeENS1_9TypeIndexENS_12DenseMapInfoIS2_vEENS_6detail12DenseMapPairIS2_S3_EEE16setNumTombstonesEj(ptr noundef nonnull align 8 dereferenceable(20) %0, i32 noundef %1) #0 comdat align 2 {
  %3 = alloca ptr, align 8
  %4 = alloca i32, align 4
  store ptr %0, ptr %3, align 8
  store i32 %1, ptr %4, align 4
  %5 = load ptr, ptr %3, align 8
  %6 = load i32, ptr %4, align 4
  %7 = getelementptr inbounds nuw %"class.llvm::DenseMap", ptr %5, i32 0, i32 2
  store i32 %6, ptr %7, align 4
  ret void
}

; Function Attrs: mustprogress nounwind uwtable
define linkonce_odr hidden void @_ZN4llvm8DenseMapINS_8codeview18GloballyHashedTypeENS1_9TypeIndexENS_12DenseMapInfoIS2_vEENS_6detail12DenseMapPairIS2_S3_EEE13setNumEntriesEj(ptr noundef nonnull align 8 dereferenceable(20) %0, i32 noundef %1) #0 comdat align 2 {
  %3 = alloca ptr, align 8
  %4 = alloca i32, align 4
  store ptr %0, ptr %3, align 8
  store i32 %1, ptr %4, align 4
  %5 = load ptr, ptr %3, align 8
  %6 = load i32, ptr %4, align 4
  %7 = getelementptr inbounds nuw %"class.llvm::DenseMap", ptr %5, i32 0, i32 1
  store i32 %6, ptr %7, align 8
  ret void
}

; Function Attrs: mustprogress nounwind uwtable
define linkonce_odr hidden noundef ptr @_ZNK4llvm8DenseMapINS_8codeview18GloballyHashedTypeENS1_9TypeIndexENS_12DenseMapInfoIS2_vEENS_6detail12DenseMapPairIS2_S3_EEE10getBucketsEv(ptr noundef nonnull align 8 dereferenceable(20) %0) #0 comdat align 2 {
  %2 = alloca ptr, align 8
  store ptr %0, ptr %2, align 8
  %3 = load ptr, ptr %2, align 8
  %4 = getelementptr inbounds nuw %"class.llvm::DenseMap", ptr %3, i32 0, i32 0
  %5 = load ptr, ptr %4, align 8
  ret ptr %5
}

; Function Attrs: mustprogress nounwind uwtable
define linkonce_odr hidden i64 @_ZN4llvm12DenseMapInfoINS_8codeview18GloballyHashedTypeEvE11getEmptyKeyEv() #0 comdat align 2 {
  %1 = alloca %"struct.llvm::codeview::GloballyHashedType", align 1
  call void @llvm.memcpy.p0.p0.i64(ptr align 1 %1, ptr align 1 @_ZN4llvm12DenseMapInfoINS_8codeview18GloballyHashedTypeEvE5EmptyE, i64 8, i1 false)
  %2 = getelementptr inbounds nuw %"struct.llvm::codeview::GloballyHashedType", ptr %1, i32 0, i32 0
  %3 = getelementptr inbounds nuw %"struct.std::array", ptr %2, i32 0, i32 0
  %4 = load i64, ptr %3, align 1
  ret i64 %4
}

; Function Attrs: mustprogress nounwind uwtable
define linkonce_odr hidden noundef i32 @_ZNK4llvm8DenseMapINS_8codeview18GloballyHashedTypeENS1_9TypeIndexENS_12DenseMapInfoIS2_vEENS_6detail12DenseMapPairIS2_S3_EEE13getNumBucketsEv(ptr noundef nonnull align 8 dereferenceable(20) %0) #0 comdat align 2 {
  %2 = alloca ptr, align 8
  store ptr %0, ptr %2, align 8
  %3 = load ptr, ptr %2, align 8
  %4 = getelementptr inbounds nuw %"class.llvm::DenseMap", ptr %3, i32 0, i32 3
  %5 = load i32, ptr %4, align 8
  ret i32 %5
}

; Function Attrs: mustprogress nounwind uwtable
define linkonce_odr hidden noundef i32 @_ZNK4llvm8DenseMapINS_8codeview18GloballyHashedTypeENS1_9TypeIndexENS_12DenseMapInfoIS2_vEENS_6detail12DenseMapPairIS2_S3_EEE16getNumTombstonesEv(ptr noundef nonnull align 8 dereferenceable(20) %0) #0 comdat align 2 {
  %2 = alloca ptr, align 8
  store ptr %0, ptr %2, align 8
  %3 = load ptr, ptr %2, align 8
  %4 = getelementptr inbounds nuw %"class.llvm::DenseMap", ptr %3, i32 0, i32 2
  %5 = load i32, ptr %4, align 4
  ret i32 %5
}

; Function Attrs: mustprogress nounwind uwtable
define linkonce_odr hidden noundef i32 @_ZNK4llvm8DenseMapINS_8codeview18GloballyHashedTypeENS1_9TypeIndexENS_12DenseMapInfoIS2_vEENS_6detail12DenseMapPairIS2_S3_EEE13getNumEntriesEv(ptr noundef nonnull align 8 dereferenceable(20) %0) #0 comdat align 2 {
  %2 = alloca ptr, align 8
  store ptr %0, ptr %2, align 8
  %3 = load ptr, ptr %2, align 8
  %4 = getelementptr inbounds nuw %"class.llvm::DenseMap", ptr %3, i32 0, i32 1
  %5 = load i32, ptr %4, align 8
  ret i32 %5
}

; Function Attrs: mustprogress nounwind uwtable
define linkonce_odr hidden void @_ZN4llvm23SmallVectorTemplateBaseINS_8ArrayRefIhEELb1EE13destroy_rangeEPS2_S4_(ptr noundef %0, ptr noundef %1) #0 comdat align 2 {
  %3 = alloca ptr, align 8
  %4 = alloca ptr, align 8
  store ptr %0, ptr %3, align 8
  store ptr %1, ptr %4, align 8
  ret void
}

; Function Attrs: mustprogress nounwind uwtable
define linkonce_odr hidden noundef ptr @_ZN4llvm25SmallVectorTemplateCommonINS_8ArrayRefIhEEvE3endEv(ptr noundef nonnull align 8 dereferenceable(16) %0) #0 comdat align 2 {
  %2 = alloca ptr, align 8
  store ptr %0, ptr %2, align 8
  %3 = load ptr, ptr %2, align 8
  %4 = call noundef ptr @_ZN4llvm25SmallVectorTemplateCommonINS_8ArrayRefIhEEvE5beginEv(ptr noundef nonnull align 8 dereferenceable(16) %3)
  %5 = call noundef i64 @_ZNK4llvm15SmallVectorBaseIjE4sizeEv(ptr noundef nonnull align 8 dereferenceable(16) %3)
  %6 = getelementptr inbounds %"class.llvm::ArrayRef", ptr %4, i64 %5
  ret ptr %6
}

; Function Attrs: mustprogress nounwind uwtable
define linkonce_odr hidden noundef ptr @_ZN4llvm25SmallVectorTemplateCommonINS_8ArrayRefIhEEvE5beginEv(ptr noundef nonnull align 8 dereferenceable(16) %0) #0 comdat align 2 {
  %2 = alloca ptr, align 8
  store ptr %0, ptr %2, align 8
  %3 = load ptr, ptr %2, align 8
  %4 = getelementptr inbounds nuw %"class.llvm::SmallVectorBase", ptr %3, i32 0, i32 0
  %5 = load ptr, ptr %4, align 8
  ret ptr %5
}

; Function Attrs: mustprogress nounwind uwtable
define linkonce_odr hidden void @_ZN4llvm12DenseMapBaseINS_8DenseMapINS_8codeview18GloballyHashedTypeENS2_9TypeIndexENS_12DenseMapInfoIS3_vEENS_6detail12DenseMapPairIS3_S4_EEEES3_S4_S6_S9_E16setNumTombstonesEj(ptr noundef nonnull align 1 dereferenceable(1) %0, i32 noundef %1) #0 comdat align 2 {
  %3 = alloca ptr, align 8
  %4 = alloca i32, align 4
  store ptr %0, ptr %3, align 8
  store i32 %1, ptr %4, align 4
  %5 = load ptr, ptr %3, align 8
  %6 = load i32, ptr %4, align 4
  call void @_ZN4llvm8DenseMapINS_8codeview18GloballyHashedTypeENS1_9TypeIndexENS_12DenseMapInfoIS2_vEENS_6detail12DenseMapPairIS2_S3_EEE16setNumTombstonesEj(ptr noundef nonnull align 8 dereferenceable(20) %5, i32 noundef %6)
  ret void
}

; Function Attrs: mustprogress nounwind uwtable
define linkonce_odr hidden void @_ZN4llvm12DenseMapBaseINS_8DenseMapINS_8codeview18GloballyHashedTypeENS2_9TypeIndexENS_12DenseMapInfoIS3_vEENS_6detail12DenseMapPairIS3_S4_EEEES3_S4_S6_S9_E13setNumEntriesEj(ptr noundef nonnull align 1 dereferenceable(1) %0, i32 noundef %1) #0 comdat align 2 {
  %3 = alloca ptr, align 8
  %4 = alloca i32, align 4
  store ptr %0, ptr %3, align 8
  store i32 %1, ptr %4, align 4
  %5 = load ptr, ptr %3, align 8
  %6 = load i32, ptr %4, align 4
  call void @_ZN4llvm8DenseMapINS_8codeview18GloballyHashedTypeENS1_9TypeIndexENS_12DenseMapInfoIS2_vEENS_6detail12DenseMapPairIS2_S3_EEE13setNumEntriesEj(ptr noundef nonnull align 8 dereferenceable(20) %5, i32 noundef %6)
  ret void
}

; Function Attrs: mustprogress nounwind uwtable
define linkonce_odr hidden noundef nonnull align 1 dereferenceable(8) ptr @_ZN4llvm6detail12DenseMapPairINS_8codeview18GloballyHashedTypeENS2_9TypeIndexEE8getFirstEv(ptr noundef nonnull align 1 dereferenceable(12) %0) #0 comdat align 2 {
  %2 = alloca ptr, align 8
  store ptr %0, ptr %2, align 8
  %3 = load ptr, ptr %2, align 8
  %4 = getelementptr inbounds nuw %"struct.std::pair.55", ptr %3, i32 0, i32 0
  ret ptr %4
}

; Function Attrs: mustprogress nounwind uwtable
define linkonce_odr hidden noundef ptr @_ZN4llvm12DenseMapBaseINS_8DenseMapINS_8codeview18GloballyHashedTypeENS2_9TypeIndexENS_12DenseMapInfoIS3_vEENS_6detail12DenseMapPairIS3_S4_EEEES3_S4_S6_S9_E13getBucketsEndEv(ptr noundef nonnull align 1 dereferenceable(1) %0) #0 comdat align 2 {
  %2 = alloca ptr, align 8
  store ptr %0, ptr %2, align 8
  %3 = load ptr, ptr %2, align 8
  %4 = call noundef ptr @_ZN4llvm12DenseMapBaseINS_8DenseMapINS_8codeview18GloballyHashedTypeENS2_9TypeIndexENS_12DenseMapInfoIS3_vEENS_6detail12DenseMapPairIS3_S4_EEEES3_S4_S6_S9_E10getBucketsEv(ptr noundef nonnull align 1 dereferenceable(1) %3)
  %5 = call noundef i32 @_ZNK4llvm12DenseMapBaseINS_8DenseMapINS_8codeview18GloballyHashedTypeENS2_9TypeIndexENS_12DenseMapInfoIS3_vEENS_6detail12DenseMapPairIS3_S4_EEEES3_S4_S6_S9_E13getNumBucketsEv(ptr noundef nonnull align 1 dereferenceable(1) %3)
  %6 = zext i32 %5 to i64
  %7 = getelementptr inbounds %"struct.llvm::detail::DenseMapPair", ptr %4, i64 %6
  ret ptr %7
}

; Function Attrs: mustprogress nounwind uwtable
define linkonce_odr hidden noundef ptr @_ZN4llvm12DenseMapBaseINS_8DenseMapINS_8codeview18GloballyHashedTypeENS2_9TypeIndexENS_12DenseMapInfoIS3_vEENS_6detail12DenseMapPairIS3_S4_EEEES3_S4_S6_S9_E10getBucketsEv(ptr noundef nonnull align 1 dereferenceable(1) %0) #0 comdat align 2 {
  %2 = alloca ptr, align 8
  store ptr %0, ptr %2, align 8
  %3 = load ptr, ptr %2, align 8
  %4 = call noundef ptr @_ZNK4llvm8DenseMapINS_8codeview18GloballyHashedTypeENS1_9TypeIndexENS_12DenseMapInfoIS2_vEENS_6detail12DenseMapPairIS2_S3_EEE10getBucketsEv(ptr noundef nonnull align 8 dereferenceable(20) %3)
  ret ptr %4
}

; Function Attrs: mustprogress nounwind uwtable
define linkonce_odr hidden i64 @_ZN4llvm12DenseMapBaseINS_8DenseMapINS_8codeview18GloballyHashedTypeENS2_9TypeIndexENS_12DenseMapInfoIS3_vEENS_6detail12DenseMapPairIS3_S4_EEEES3_S4_S6_S9_E11getEmptyKeyEv() #0 comdat align 2 {
  %1 = alloca %"struct.llvm::codeview::GloballyHashedType", align 1
  %2 = call i64 @_ZN4llvm12DenseMapInfoINS_8codeview18GloballyHashedTypeEvE11getEmptyKeyEv()
  %3 = getelementptr inbounds nuw %"struct.llvm::codeview::GloballyHashedType", ptr %1, i32 0, i32 0
  %4 = getelementptr inbounds nuw %"struct.std::array", ptr %3, i32 0, i32 0
  store i64 %2, ptr %4, align 1
  %5 = getelementptr inbounds nuw %"struct.llvm::codeview::GloballyHashedType", ptr %1, i32 0, i32 0
  %6 = getelementptr inbounds nuw %"struct.std::array", ptr %5, i32 0, i32 0
  %7 = load i64, ptr %6, align 1
  ret i64 %7
}

; Function Attrs: mustprogress nounwind uwtable
define linkonce_odr hidden void @_ZN4llvm12DenseMapBaseINS_8DenseMapINS_8codeview18GloballyHashedTypeENS2_9TypeIndexENS_12DenseMapInfoIS3_vEENS_6detail12DenseMapPairIS3_S4_EEEES3_S4_S6_S9_E16shrink_and_clearEv(ptr noundef nonnull align 1 dereferenceable(1) %0) #0 comdat align 2 {
  %2 = alloca ptr, align 8
  store ptr %0, ptr %2, align 8
  %3 = load ptr, ptr %2, align 8
  call void @_ZN4llvm8DenseMapINS_8codeview18GloballyHashedTypeENS1_9TypeIndexENS_12DenseMapInfoIS2_vEENS_6detail12DenseMapPairIS2_S3_EEE16shrink_and_clearEv(ptr noundef nonnull align 8 dereferenceable(20) %3)
  ret void
}

; Function Attrs: mustprogress nounwind uwtable
define linkonce_odr hidden noundef i32 @_ZNK4llvm12DenseMapBaseINS_8DenseMapINS_8codeview18GloballyHashedTypeENS2_9TypeIndexENS_12DenseMapInfoIS3_vEENS_6detail12DenseMapPairIS3_S4_EEEES3_S4_S6_S9_E13getNumBucketsEv(ptr noundef nonnull align 1 dereferenceable(1) %0) #0 comdat align 2 {
  %2 = alloca ptr, align 8
  store ptr %0, ptr %2, align 8
  %3 = load ptr, ptr %2, align 8
  %4 = call noundef i32 @_ZNK4llvm8DenseMapINS_8codeview18GloballyHashedTypeENS1_9TypeIndexENS_12DenseMapInfoIS2_vEENS_6detail12DenseMapPairIS2_S3_EEE13getNumBucketsEv(ptr noundef nonnull align 8 dereferenceable(20) %3)
  ret i32 %4
}

; Function Attrs: mustprogress nounwind uwtable
define linkonce_odr hidden noundef i32 @_ZNK4llvm12DenseMapBaseINS_8DenseMapINS_8codeview18GloballyHashedTypeENS2_9TypeIndexENS_12DenseMapInfoIS3_vEENS_6detail12DenseMapPairIS3_S4_EEEES3_S4_S6_S9_E16getNumTombstonesEv(ptr noundef nonnull align 1 dereferenceable(1) %0) #0 comdat align 2 {
  %2 = alloca ptr, align 8
  store ptr %0, ptr %2, align 8
  %3 = load ptr, ptr %2, align 8
  %4 = call noundef i32 @_ZNK4llvm8DenseMapINS_8codeview18GloballyHashedTypeENS1_9TypeIndexENS_12DenseMapInfoIS2_vEENS_6detail12DenseMapPairIS2_S3_EEE16getNumTombstonesEv(ptr noundef nonnull align 8 dereferenceable(20) %3)
  ret i32 %4
}

; Function Attrs: mustprogress nounwind uwtable
define linkonce_odr hidden noundef i32 @_ZNK4llvm12DenseMapBaseINS_8DenseMapINS_8codeview18GloballyHashedTypeENS2_9TypeIndexENS_12DenseMapInfoIS3_vEENS_6detail12DenseMapPairIS3_S4_EEEES3_S4_S6_S9_E13getNumEntriesEv(ptr noundef nonnull align 1 dereferenceable(1) %0) #0 comdat align 2 {
  %2 = alloca ptr, align 8
  store ptr %0, ptr %2, align 8
  %3 = load ptr, ptr %2, align 8
  %4 = call noundef i32 @_ZNK4llvm8DenseMapINS_8codeview18GloballyHashedTypeENS1_9TypeIndexENS_12DenseMapInfoIS2_vEENS_6detail12DenseMapPairIS2_S3_EEE13getNumEntriesEv(ptr noundef nonnull align 8 dereferenceable(20) %3)
  ret i32 %4
}

; Function Attrs: mustprogress nounwind uwtable
define linkonce_odr hidden void @_ZN4llvm14DebugEpochBase14incrementEpochEv(ptr noundef nonnull align 1 dereferenceable(1) %0) #0 comdat align 2 {
  %2 = alloca ptr, align 8
  store ptr %0, ptr %2, align 8
  ret void
}

; Function Attrs: mustprogress nounwind uwtable
define linkonce_odr hidden void @_ZN4llvm15SmallVectorImplINS_8ArrayRefIhEEE5clearEv(ptr noundef nonnull align 8 dereferenceable(16) %0) #0 comdat align 2 {
  %2 = alloca ptr, align 8
  store ptr %0, ptr %2, align 8
  %3 = load ptr, ptr %2, align 8
  %4 = call noundef ptr @_ZN4llvm25SmallVectorTemplateCommonINS_8ArrayRefIhEEvE5beginEv(ptr noundef nonnull align 8 dereferenceable(16) %3)
  %5 = call noundef ptr @_ZN4llvm25SmallVectorTemplateCommonINS_8ArrayRefIhEEvE3endEv(ptr noundef nonnull align 8 dereferenceable(16) %3)
  call void @_ZN4llvm23SmallVectorTemplateBaseINS_8ArrayRefIhEELb1EE13destroy_rangeEPS2_S4_(ptr noundef %4, ptr noundef %5)
  %6 = getelementptr inbounds nuw %"class.llvm::SmallVectorBase", ptr %3, i32 0, i32 1
  store i32 0, ptr %6, align 8
  ret void
}

; Function Attrs: mustprogress nounwind uwtable
define linkonce_odr hidden void @_ZN4llvm12DenseMapBaseINS_8DenseMapINS_8codeview18GloballyHashedTypeENS2_9TypeIndexENS_12DenseMapInfoIS3_vEENS_6detail12DenseMapPairIS3_S4_EEEES3_S4_S6_S9_E5clearEv(ptr noundef nonnull align 1 dereferenceable(1) %0) #0 comdat align 2 {
  %2 = alloca ptr, align 8
  %3 = alloca %"struct.llvm::codeview::GloballyHashedType", align 1
  %4 = alloca ptr, align 8
  %5 = alloca ptr, align 8
  store ptr %0, ptr %2, align 8
  %6 = load ptr, ptr %2, align 8
  call void @_ZN4llvm14DebugEpochBase14incrementEpochEv(ptr noundef nonnull align 1 dereferenceable(1) %6)
  %7 = call noundef i32 @_ZNK4llvm12DenseMapBaseINS_8DenseMapINS_8codeview18GloballyHashedTypeENS2_9TypeIndexENS_12DenseMapInfoIS3_vEENS_6detail12DenseMapPairIS3_S4_EEEES3_S4_S6_S9_E13getNumEntriesEv(ptr noundef nonnull align 1 dereferenceable(1) %6)
  %8 = icmp eq i32 %7, 0
  br i1 %8, label %9, label %13

9:                                                ; preds = %1
  %10 = call noundef i32 @_ZNK4llvm12DenseMapBaseINS_8DenseMapINS_8codeview18GloballyHashedTypeENS2_9TypeIndexENS_12DenseMapInfoIS3_vEENS_6detail12DenseMapPairIS3_S4_EEEES3_S4_S6_S9_E16getNumTombstonesEv(ptr noundef nonnull align 1 dereferenceable(1) %6)
  %11 = icmp eq i32 %10, 0
  br i1 %11, label %12, label %13

12:                                               ; preds = %9
  br label %39

13:                                               ; preds = %9, %1
  %14 = call noundef i32 @_ZNK4llvm12DenseMapBaseINS_8DenseMapINS_8codeview18GloballyHashedTypeENS2_9TypeIndexENS_12DenseMapInfoIS3_vEENS_6detail12DenseMapPairIS3_S4_EEEES3_S4_S6_S9_E13getNumEntriesEv(ptr noundef nonnull align 1 dereferenceable(1) %6)
  %15 = mul i32 %14, 4
  %16 = call noundef i32 @_ZNK4llvm12DenseMapBaseINS_8DenseMapINS_8codeview18GloballyHashedTypeENS2_9TypeIndexENS_12DenseMapInfoIS3_vEENS_6detail12DenseMapPairIS3_S4_EEEES3_S4_S6_S9_E13getNumBucketsEv(ptr noundef nonnull align 1 dereferenceable(1) %6)
  %17 = icmp ult i32 %15, %16
  br i1 %17, label %18, label %22

18:                                               ; preds = %13
  %19 = call noundef i32 @_ZNK4llvm12DenseMapBaseINS_8DenseMapINS_8codeview18GloballyHashedTypeENS2_9TypeIndexENS_12DenseMapInfoIS3_vEENS_6detail12DenseMapPairIS3_S4_EEEES3_S4_S6_S9_E13getNumBucketsEv(ptr noundef nonnull align 1 dereferenceable(1) %6)
  %20 = icmp ugt i32 %19, 64
  br i1 %20, label %21, label %22

21:                                               ; preds = %18
  call void @_ZN4llvm12DenseMapBaseINS_8DenseMapINS_8codeview18GloballyHashedTypeENS2_9TypeIndexENS_12DenseMapInfoIS3_vEENS_6detail12DenseMapPairIS3_S4_EEEES3_S4_S6_S9_E16shrink_and_clearEv(ptr noundef nonnull align 1 dereferenceable(1) %6)
  br label %39

22:                                               ; preds = %18, %13
  %23 = call i64 @_ZN4llvm12DenseMapBaseINS_8DenseMapINS_8codeview18GloballyHashedTypeENS2_9TypeIndexENS_12DenseMapInfoIS3_vEENS_6detail12DenseMapPairIS3_S4_EEEES3_S4_S6_S9_E11getEmptyKeyEv()
  %24 = getelementptr inbounds nuw %"struct.llvm::codeview::GloballyHashedType", ptr %3, i32 0, i32 0
  %25 = getelementptr inbounds nuw %"struct.std::array", ptr %24, i32 0, i32 0
  store i64 %23, ptr %25, align 1
  %26 = call noundef ptr @_ZN4llvm12DenseMapBaseINS_8DenseMapINS_8codeview18GloballyHashedTypeENS2_9TypeIndexENS_12DenseMapInfoIS3_vEENS_6detail12DenseMapPairIS3_S4_EEEES3_S4_S6_S9_E10getBucketsEv(ptr noundef nonnull align 1 dereferenceable(1) %6)
  store ptr %26, ptr %4, align 8
  %27 = call noundef ptr @_ZN4llvm12DenseMapBaseINS_8DenseMapINS_8codeview18GloballyHashedTypeENS2_9TypeIndexENS_12DenseMapInfoIS3_vEENS_6detail12DenseMapPairIS3_S4_EEEES3_S4_S6_S9_E13getBucketsEndEv(ptr noundef nonnull align 1 dereferenceable(1) %6)
  store ptr %27, ptr %5, align 8
  br label %28

28:                                               ; preds = %35, %22
  %29 = load ptr, ptr %4, align 8
  %30 = load ptr, ptr %5, align 8
  %31 = icmp ne ptr %29, %30
  br i1 %31, label %32, label %38

32:                                               ; preds = %28
  %33 = load ptr, ptr %4, align 8
  %34 = call noundef nonnull align 1 dereferenceable(8) ptr @_ZN4llvm6detail12DenseMapPairINS_8codeview18GloballyHashedTypeENS2_9TypeIndexEE8getFirstEv(ptr noundef nonnull align 1 dereferenceable(12) %33)
  call void @llvm.memcpy.p0.p0.i64(ptr align 1 %34, ptr align 1 %3, i64 8, i1 false)
  br label %35

35:                                               ; preds = %32
  %36 = load ptr, ptr %4, align 8
  %37 = getelementptr inbounds %"struct.llvm::detail::DenseMapPair", ptr %36, i32 1
  store ptr %37, ptr %4, align 8
  br label %28, !llvm.loop !4

38:                                               ; preds = %28
  call void @_ZN4llvm12DenseMapBaseINS_8DenseMapINS_8codeview18GloballyHashedTypeENS2_9TypeIndexENS_12DenseMapInfoIS3_vEENS_6detail12DenseMapPairIS3_S4_EEEES3_S4_S6_S9_E13setNumEntriesEj(ptr noundef nonnull align 1 dereferenceable(1) %6, i32 noundef 0)
  call void @_ZN4llvm12DenseMapBaseINS_8DenseMapINS_8codeview18GloballyHashedTypeENS2_9TypeIndexENS_12DenseMapInfoIS3_vEENS_6detail12DenseMapPairIS3_S4_EEEES3_S4_S6_S9_E16setNumTombstonesEj(ptr noundef nonnull align 1 dereferenceable(1) %6, i32 noundef 0)
  br label %39

39:                                               ; preds = %38, %21, %12
  ret void
}

; Function Attrs: mustprogress nounwind uwtable
define dso_local void @_ZN4llvm8codeview22GlobalTypeTableBuilder5resetEv(ptr noundef nonnull align 8 dereferenceable(144) %0) #0 align 2 {
  %2 = alloca ptr, align 8
  store ptr %0, ptr %2, align 8
  %3 = load ptr, ptr %2, align 8
  %4 = getelementptr inbounds nuw %"class.llvm::codeview::GlobalTypeTableBuilder", ptr %3, i32 0, i32 3
  call void @_ZN4llvm12DenseMapBaseINS_8DenseMapINS_8codeview18GloballyHashedTypeENS2_9TypeIndexENS_12DenseMapInfoIS3_vEENS_6detail12DenseMapPairIS3_S4_EEEES3_S4_S6_S9_E5clearEv(ptr noundef nonnull align 1 dereferenceable(1) %4)
  %5 = getelementptr inbounds nuw %"class.llvm::codeview::GlobalTypeTableBuilder", ptr %3, i32 0, i32 4
  call void @_ZN4llvm15SmallVectorImplINS_8ArrayRefIhEEE5clearEv(ptr noundef nonnull align 8 dereferenceable(16) %5)
  ret void
}