; Function Attrs: mustprogress nounwind uwtable
define dso_local void @_ZN4llvm8codeview22GlobalTypeTableBuilder5resetEv(ptr noundef nonnull align 8 dereferenceable(144) %0) local_unnamed_addr #0 align 2 {
  %2 = getelementptr inbounds nuw i8, ptr %0, i64 40
  %3 = getelementptr inbounds nuw i8, ptr %0, i64 48
  %4 = load i32, ptr %3, align 8
  %5 = icmp eq i32 %4, 0
  %6 = getelementptr inbounds nuw i8, ptr %0, i64 52
  %7 = load i32, ptr %6, align 4
  %8 = icmp eq i32 %7, 0
  %or.cond = select i1 %5, i1 %8, i1 false
  br i1 %or.cond, label %_ZN4llvm12DenseMapBaseINS_8DenseMapINS_8codeview18GloballyHashedTypeENS2_9TypeIndexENS_12DenseMapInfoIS3_vEENS_6detail12DenseMapPairIS3_S4_EEEES3_S4_S6_S9_E5clearEv.exit, label %9

9:                                                ; preds = %1
  %10 = shl i32 %4, 2
  %11 = getelementptr inbounds nuw i8, ptr %0, i64 56
  %12 = load i32, ptr %11, align 8
  %13 = icmp ult i32 %10, %12
  %14 = icmp ugt i32 %12, 64
  %or.cond.i = and i1 %13, %14
  br i1 %or.cond.i, label %15, label %16

15:                                               ; preds = %9
  tail call void @_ZN4llvm8DenseMapINS_8codeview18GloballyHashedTypeENS1_9TypeIndexENS_12DenseMapInfoIS2_vEENS_6detail12DenseMapPairIS2_S3_EEE16shrink_and_clearEv(ptr noundef nonnull align 8 dereferenceable(20) %2)
  br label %_ZN4llvm12DenseMapBaseINS_8DenseMapINS_8codeview18GloballyHashedTypeENS2_9TypeIndexENS_12DenseMapInfoIS3_vEENS_6detail12DenseMapPairIS3_S4_EEEES3_S4_S6_S9_E5clearEv.exit

16:                                               ; preds = %9
  %.sroa.0.0.copyload.i.i.i = load i64, ptr @_ZN4llvm12DenseMapInfoINS_8codeview18GloballyHashedTypeEvE5EmptyE, align 1
  %17 = load ptr, ptr %2, align 8
  %18 = zext i32 %12 to i64
  %19 = getelementptr inbounds nuw %"struct.llvm::detail::DenseMapPair", ptr %17, i64 %18
  %.not5.i = icmp eq i32 %12, 0
  br i1 %.not5.i, label %._crit_edge.i, label %.lr.ph.i

.lr.ph.i:                                         ; preds = %16, %.lr.ph.i
  %.06.i = phi ptr [ %20, %.lr.ph.i ], [ %17, %16 ]
  store i64 %.sroa.0.0.copyload.i.i.i, ptr %.06.i, align 1
  %20 = getelementptr inbounds nuw i8, ptr %.06.i, i64 12
  %.not.i = icmp eq ptr %20, %19
  br i1 %.not.i, label %._crit_edge.i, label %.lr.ph.i, !llvm.loop !4

._crit_edge.i:                                    ; preds = %.lr.ph.i, %16
  store i32 0, ptr %3, align 8
  store i32 0, ptr %6, align 4
  br label %_ZN4llvm12DenseMapBaseINS_8DenseMapINS_8codeview18GloballyHashedTypeENS2_9TypeIndexENS_12DenseMapInfoIS3_vEENS_6detail12DenseMapPairIS3_S4_EEEES3_S4_S6_S9_E5clearEv.exit

_ZN4llvm12DenseMapBaseINS_8DenseMapINS_8codeview18GloballyHashedTypeENS2_9TypeIndexENS_12DenseMapInfoIS3_vEENS_6detail12DenseMapPairIS3_S4_EEEES3_S4_S6_S9_E5clearEv.exit: ; preds = %1, %15, %._crit_edge.i
  %21 = getelementptr inbounds nuw i8, ptr %0, i64 64
  %22 = tail call noundef i64 @_ZNK4llvm15SmallVectorBaseIjE4sizeEv(ptr noundef nonnull align 8 dereferenceable(16) %21) #13
  %23 = getelementptr inbounds nuw i8, ptr %0, i64 72
  store i32 0, ptr %23, align 8
  ret void
}